; Function Attrs: mustprogress nounwind uwtable
define internal fastcc noundef ptr @_ZL20upgradeMaskedCompareRN4llvm9IRBuilderINS_14ConstantFolderENS_24IRBuilderDefaultInserterEEERNS_8CallBaseEjb(ptr noundef nonnull align 8 dereferenceable(144) %0, ptr noundef nonnull align 8 dereferenceable(88) %1, i32 noundef %2, i1 noundef zeroext %3) unnamed_addr #0 {
  %5 = alloca %"class.llvm::Twine", align 8
  %6 = getelementptr inbounds nuw i8, ptr %1, i64 4
  %7 = load i32, ptr %6, align 4
  %8 = and i32 %7, 134217727
  %9 = zext nneg i32 %8 to i64
  %10 = sub nsw i64 0, %9
  %11 = getelementptr inbounds %"class.llvm::Use", ptr %1, i64 %10
  %12 = load ptr, ptr %11, align 8
  %13 = getelementptr inbounds nuw i8, ptr %12, i64 8
  %14 = load ptr, ptr %13, align 8
  %15 = getelementptr inbounds nuw i8, ptr %14, i64 32
  %16 = load i32, ptr %15, align 8
  switch i32 %2, label %29 [
    i32 3, label %17
    i32 7, label %23
    i32 0, label %39
    i32 1, label %30
    i32 2, label %32
    i32 4, label %34
    i32 5, label %35
    i32 6, label %37
  ]

17:                                               ; preds = %4
  %18 = getelementptr inbounds nuw i8, ptr %0, i64 72
  %19 = load ptr, ptr %18, align 8
  %20 = tail call noundef ptr @_ZN4llvm4Type9getInt1TyERNS_11LLVMContextE(ptr noundef nonnull align 8 dereferenceable(8) %19) #20
  %21 = tail call noundef ptr @_ZN4llvm15FixedVectorType3getEPNS_4TypeEj(ptr noundef %20, i32 noundef %16) #20
  %22 = tail call noundef ptr @_ZN4llvm8Constant12getNullValueEPNS_4TypeE(ptr noundef %21) #20
  br label %44

23:                                               ; preds = %4
  %24 = getelementptr inbounds nuw i8, ptr %0, i64 72
  %25 = load ptr, ptr %24, align 8
  %26 = tail call noundef ptr @_ZN4llvm4Type9getInt1TyERNS_11LLVMContextE(ptr noundef nonnull align 8 dereferenceable(8) %25) #20
  %27 = tail call noundef ptr @_ZN4llvm15FixedVectorType3getEPNS_4TypeEj(ptr noundef %26, i32 noundef %16) #20
  %28 = tail call noundef ptr @_ZN4llvm8Constant15getAllOnesValueEPNS_4TypeE(ptr noundef %27) #20
  br label %44

29:                                               ; preds = %4
  unreachable

30:                                               ; preds = %4
  %31 = select i1 %3, i32 40, i32 36
  br label %39

32:                                               ; preds = %4
  %33 = select i1 %3, i32 41, i32 37
  br label %39

34:                                               ; preds = %4
  br label %39

35:                                               ; preds = %4
  %36 = select i1 %3, i32 39, i32 35
  br label %39

37:                                               ; preds = %4
  %38 = select i1 %3, i32 38, i32 34
  br label %39

39:                                               ; preds = %4, %37, %35, %34, %32, %30
  %.021 = phi i32 [ %38, %37 ], [ %36, %35 ], [ 33, %34 ], [ %33, %32 ], [ %31, %30 ], [ 32, %4 ]
  %40 = getelementptr inbounds i8, ptr %11, i64 32
  %41 = load ptr, ptr %40, align 8
  %42 = getelementptr inbounds nuw i8, ptr %5, i64 32
  store i16 257, ptr %42, align 8
  %43 = call noundef ptr @_ZN4llvm13IRBuilderBase10CreateICmpENS_7CmpInst9PredicateEPNS_5ValueES4_RKNS_5TwineE(ptr noundef nonnull align 8 dereferenceable(128) %0, i32 noundef %.021, ptr noundef nonnull %12, ptr noundef %41, ptr noundef nonnull align 8 dereferenceable(34) %5)
  br label %44

44:                                               ; preds = %23, %39, %17
  %.0 = phi ptr [ %22, %17 ], [ %28, %23 ], [ %43, %39 ]
  %45 = call noundef ptr @_ZN4llvm8CallBase7arg_endEv(ptr noundef nonnull align 8 dereferenceable(88) %1)
  %46 = load i32, ptr %6, align 4
  %47 = and i32 %46, 134217727
  %48 = zext nneg i32 %47 to i64
  %49 = sub nsw i64 0, %48
  %50 = getelementptr inbounds %"class.llvm::Use", ptr %1, i64 %49
  %51 = ptrtoint ptr %45 to i64
  %52 = ptrtoint ptr %50 to i64
  %53 = sub i64 %51, %52
  %54 = lshr exact i64 %53, 5
  %55 = add nuw nsw i64 %54, 4294967295
  %56 = and i64 %55, 4294967295
  %57 = getelementptr inbounds %"class.llvm::Use", ptr %50, i64 %56
  %58 = load ptr, ptr %57, align 8
  %59 = call fastcc noundef ptr @_ZL22applyX86MaskOn1BitsVecRN4llvm9IRBuilderINS_14ConstantFolderENS_24IRBuilderDefaultInserterEEEPNS_5ValueES6_(ptr noundef nonnull align 8 dereferenceable(144) %0, ptr noundef %.0, ptr noundef %58)
  ret ptr %59
}